target datalayout = "e-m:e-p270:32:32-p271:32:32-p272:64:64-i64:64-i128:128-f80:128-n8:16:32:64-S128"
target triple = "x86_64-pc-linux-gnu"

%struct.strvec = type { ptr, i64, i64 }
%struct.run_hooks_opt = type { %struct.strvec, %struct.strvec, i8, ptr, ptr, ptr }
%struct.__va_list_tag = type { i32, i32, ptr, ptr }

@the_repository = external global ptr, align 8
@.str.34 = private unnamed_addr constant [18 x i8] c"GIT_INDEX_FILE=%s\00", align 1
@.str.35 = private unnamed_addr constant [13 x i8] c"GIT_EDITOR=:\00", align 1

; Function Attrs: nounwind uwtable
define dso_local i32 @run_commit_hook(i32 noundef %0, ptr noundef %1, ptr noundef %2, ptr noundef %3, ...) #0 {
  %5 = alloca i32, align 4
  %6 = alloca ptr, align 8
  %7 = alloca ptr, align 8
  %8 = alloca ptr, align 8
  %9 = alloca %struct.run_hooks_opt, align 8
  %10 = alloca [1 x %struct.__va_list_tag], align 16
  %11 = alloca ptr, align 8
  store i32 %0, ptr %5, align 4, !tbaa !11
  store ptr %1, ptr %6, align 8, !tbaa !15
  store ptr %2, ptr %7, align 8, !tbaa !146
  store ptr %3, ptr %8, align 8, !tbaa !15
  call void @llvm.lifetime.start.p0(i64 80, ptr %9) #11
  call void @llvm.memcpy.p0.p0.i64(ptr align 8 %9, ptr align 8 @__const.run_commit_hook.opt, i64 80, i1 false)
  call void @llvm.lifetime.start.p0(i64 24, ptr %10) #11
  call void @llvm.lifetime.start.p0(i64 8, ptr %11) #11
  %12 = getelementptr inbounds nuw %struct.run_hooks_opt, ptr %9, i32 0, i32 0
  %13 = load ptr, ptr %6, align 8, !tbaa !15
  %14 = call ptr (ptr, ptr, ...) @strvec_pushf(ptr noundef %12, ptr noundef @.str.34, ptr noundef %13)
  %15 = load i32, ptr %5, align 4, !tbaa !11
  %16 = icmp ne i32 %15, 0
  br i1 %16, label %20, label %17

17:                                               ; preds = %4
  %18 = getelementptr inbounds nuw %struct.run_hooks_opt, ptr %9, i32 0, i32 0
  %19 = call ptr @strvec_push(ptr noundef %18, ptr noundef @.str.35)
  br label %20

20:                                               ; preds = %17, %4
  %21 = getelementptr inbounds [1 x %struct.__va_list_tag], ptr %10, i64 0, i64 0
  call void @llvm.va_start.p0(ptr %21)
  br label %22

22:                                               ; preds = %40, %20
  %23 = getelementptr inbounds [1 x %struct.__va_list_tag], ptr %10, i64 0, i64 0
  %24 = getelementptr inbounds nuw %struct.__va_list_tag, ptr %23, i32 0, i32 0
  %25 = load i32, ptr %24, align 16
  %26 = icmp ule i32 %25, 40
  br i1 %26, label %27, label %32

27:                                               ; preds = %22
  %28 = getelementptr inbounds nuw %struct.__va_list_tag, ptr %23, i32 0, i32 3
  %29 = load ptr, ptr %28, align 16
  %30 = getelementptr i8, ptr %29, i32 %25
  %31 = add i32 %25, 8
  store i32 %31, ptr %24, align 16
  br label %36

32:                                               ; preds = %22
  %33 = getelementptr inbounds nuw %struct.__va_list_tag, ptr %23, i32 0, i32 2
  %34 = load ptr, ptr %33, align 8
  %35 = getelementptr i8, ptr %34, i32 8
  store ptr %35, ptr %33, align 8
  br label %36

36:                                               ; preds = %32, %27
  %37 = phi ptr [ %30, %27 ], [ %34, %32 ]
  %38 = load ptr, ptr %37, align 8, !tbaa !15
  store ptr %38, ptr %11, align 8, !tbaa !15
  %39 = icmp ne ptr %38, null
  br i1 %39, label %40, label %44

40:                                               ; preds = %36
  %41 = getelementptr inbounds nuw %struct.run_hooks_opt, ptr %9, i32 0, i32 1
  %42 = load ptr, ptr %11, align 8, !tbaa !15
  %43 = call ptr @strvec_push(ptr noundef %41, ptr noundef %42)
  br label %22, !llvm.loop !225

44:                                               ; preds = %36
  %45 = getelementptr inbounds [1 x %struct.__va_list_tag], ptr %10, i64 0, i64 0
  call void @llvm.va_end.p0(ptr %45)
  %46 = load ptr, ptr %7, align 8, !tbaa !146
  %47 = getelementptr inbounds nuw %struct.run_hooks_opt, ptr %9, i32 0, i32 4
  store ptr %46, ptr %47, align 8, !tbaa !226
  %48 = load ptr, ptr @the_repository, align 8, !tbaa !4
  %49 = load ptr, ptr %8, align 8, !tbaa !15
  %50 = call i32 @run_hooks_opt(ptr noundef %48, ptr noundef %49, ptr noundef %9)
  call void @llvm.lifetime.end.p0(i64 8, ptr %11) #11
  call void @llvm.lifetime.end.p0(i64 24, ptr %10) #11
  call void @llvm.lifetime.end.p0(i64 80, ptr %9) #11
  ret i32 %50
}