; Function Attrs: nounwind uwtable
define dso_local i32 @run_commit_hook(i32 noundef %0, ptr noundef %1, ptr noundef %2, ptr noundef %3, ...) local_unnamed_addr #0 {
  %5 = alloca %struct.run_hooks_opt, align 8
  %6 = alloca [1 x %struct.__va_list_tag], align 16
  call void @llvm.lifetime.start.p0(i64 80, ptr nonnull %5) #24
  call void @llvm.memcpy.p0.p0.i64(ptr noundef nonnull align 8 dereferenceable(80) %5, ptr noundef nonnull align 8 dereferenceable(80) @__const.run_commit_hook.opt, i64 80, i1 false)
  call void @llvm.lifetime.start.p0(i64 24, ptr nonnull %6) #24
  %7 = call ptr (ptr, ptr, ...) @strvec_pushf(ptr noundef nonnull %5, ptr noundef nonnull @.str.34, ptr noundef %1) #24
  %.not = icmp eq i32 %0, 0
  br i1 %.not, label %8, label %10

8:                                                ; preds = %4
  %9 = call ptr @strvec_push(ptr noundef nonnull %5, ptr noundef nonnull @.str.35) #24
  br label %10

10:                                               ; preds = %8, %4
  call void @llvm.va_start.p0(ptr nonnull %6)
  %11 = getelementptr inbounds nuw i8, ptr %6, i64 8
  %12 = getelementptr inbounds nuw i8, ptr %6, i64 16
  %13 = getelementptr inbounds nuw i8, ptr %5, i64 24
  br label %14

14:                                               ; preds = %28, %10
  %15 = load i32, ptr %6, align 16
  %16 = icmp ult i32 %15, 41
  br i1 %16, label %17, label %22

17:                                               ; preds = %14
  %18 = load ptr, ptr %12, align 16
  %19 = zext nneg i32 %15 to i64
  %20 = getelementptr i8, ptr %18, i64 %19
  %21 = add nuw nsw i32 %15, 8
  store i32 %21, ptr %6, align 16
  br label %25

22:                                               ; preds = %14
  %23 = load ptr, ptr %11, align 8
  %24 = getelementptr i8, ptr %23, i64 8
  store ptr %24, ptr %11, align 8
  br label %25

25:                                               ; preds = %22, %17
  %26 = phi ptr [ %20, %17 ], [ %23, %22 ]
  %27 = load ptr, ptr %26, align 8, !tbaa !54
  %.not5 = icmp eq ptr %27, null
  br i1 %.not5, label %30, label %28

28:                                               ; preds = %25
  %29 = call ptr @strvec_push(ptr noundef nonnull %13, ptr noundef nonnull %27) #24
  br label %14, !llvm.loop !204

30:                                               ; preds = %25
  call void @llvm.va_end.p0(ptr nonnull %6)
  %31 = getelementptr inbounds nuw i8, ptr %5, i64 64
  store ptr %2, ptr %31, align 8, !tbaa !205
  %32 = load ptr, ptr @the_repository, align 8, !tbaa !4
  %33 = call i32 @run_hooks_opt(ptr noundef %32, ptr noundef %3, ptr noundef nonnull %5) #24
  call void @llvm.lifetime.end.p0(i64 24, ptr nonnull %6) #24
  call void @llvm.lifetime.end.p0(i64 80, ptr nonnull %5) #24
  ret i32 %33
}